; Function Attrs: mustprogress uwtable
define hidden void @_ZNK4cvc58internal11NodeBuilderixEi(ptr noalias nocapture writeonly sret(%"class.cvc5::internal::NodeTemplate") align 8 %agg.result, ptr nocapture noundef nonnull readonly align 8 dereferenceable(116) %this, i32 noundef %i) local_unnamed_addr #3 align 2 {
entry:
  tail call void @llvm.experimental.noalias.scope.decl(metadata !8)
  %d_nv.i = getelementptr inbounds i8, ptr %this, i64 96
  %0 = load ptr, ptr %d_nv.i, align 8, !noalias !8
  %d_kind.i.i.i.i = getelementptr inbounds i8, ptr %0, i64 8
  %bf.load.i.i.i.i = load i16, ptr %d_kind.i.i.i.i, align 8, !noalias !8
  %bf.clear.i.i.i.i = and i16 %bf.load.i.i.i.i, 1023
  %bf.cast.i.i.i.i = zext nneg i16 %bf.clear.i.i.i.i to i32
  %cmp.i.i.i.i.i = icmp eq i16 %bf.clear.i.i.i.i, 1023
  %cond.i.i.i.i.i = select i1 %cmp.i.i.i.i.i, i32 -1, i32 %bf.cast.i.i.i.i
  %call2.i.i.i = tail call noundef i32 @_ZN4cvc58internal4kind10metaKindOfENS1_6Kind_tE(i32 noundef %cond.i.i.i.i.i), !noalias !8
  %cmp.i.i = icmp eq i32 %call2.i.i.i, 2
  %inc.i.i = zext i1 %cmp.i.i to i32
  %spec.select.i.i = add nsw i32 %inc.i.i, %i
  %d_children.i.i = getelementptr inbounds i8, ptr %0, i64 16
  %idxprom.i.i = sext i32 %spec.select.i.i to i64
  %arrayidx.i.i = getelementptr inbounds [0 x ptr], ptr %d_children.i.i, i64 0, i64 %idxprom.i.i
  %1 = load ptr, ptr %arrayidx.i.i, align 8, !noalias !8
  store ptr %1, ptr %agg.result, align 8, !alias.scope !8
  %bf.load.i.i.i = load i64, ptr %1, align 8, !noalias !8
  %bf.lshr.i.i.i = lshr i64 %bf.load.i.i.i, 40
  %2 = trunc i64 %bf.lshr.i.i.i to i32
  %bf.cast.i.i.i = and i32 %2, 1048575
  %cmp.i.i.i = icmp ult i32 %bf.cast.i.i.i, 1048574
  br i1 %cmp.i.i.i, label %if.then.i.i.i, label %if.else.i.i.i

if.then.i.i.i:                                    ; preds = %entry
  %bf.value.i.i.i = add i64 %bf.load.i.i.i, 1099511627776
  %bf.shl.i.i.i = and i64 %bf.value.i.i.i, 1152920405095219200
  %bf.clear7.i.i.i = and i64 %bf.load.i.i.i, -1152920405095219201
  %bf.set.i.i.i = or disjoint i64 %bf.shl.i.i.i, %bf.clear7.i.i.i
  store i64 %bf.set.i.i.i, ptr %1, align 8, !noalias !8
  br label %_ZNK4cvc58internal11NodeBuilder8getChildEi.exit

if.else.i.i.i:                                    ; preds = %entry
  %cmp12.i.i.i = icmp eq i32 %bf.cast.i.i.i, 1048574
  br i1 %cmp12.i.i.i, label %if.then13.i.i.i, label %_ZNK4cvc58internal11NodeBuilder8getChildEi.exit

if.then13.i.i.i:                                  ; preds = %if.else.i.i.i
  %bf.set23.i.i.i = or i64 %bf.load.i.i.i, 1152920405095219200
  store i64 %bf.set23.i.i.i, ptr %1, align 8, !noalias !8
  tail call void @_ZN4cvc58internal4expr9NodeValue20markRefCountMaxedOutEv(ptr noundef nonnull align 8 dereferenceable(16) %1), !noalias !8
  br label %_ZNK4cvc58internal11NodeBuilder8getChildEi.exit

_ZNK4cvc58internal11NodeBuilder8getChildEi.exit:  ; preds = %if.then.i.i.i, %if.else.i.i.i, %if.then13.i.i.i
  ret void
}